target datalayout = "e-m:e-p270:32:32-p271:32:32-p272:64:64-i64:64-i128:128-f80:128-n8:16:32:64-S128"
target triple = "x86_64-pc-linux-gnu"

%struct.lv_ll_t = type { i32, ptr, ptr }
%struct.lv_style_t = type { ptr, i32, i8 }
%struct._lv_spangroup_t = type { %struct._lv_obj_t, i32, i32, i32, i32, %struct.lv_ll_t, i8 }
%struct._lv_obj_t = type { ptr, ptr, ptr, ptr, ptr, %struct.lv_area_t, i32, i16, i16 }
%struct.lv_area_t = type { i32, i32, i32, i32 }
%struct._lv_span_t = type { ptr, ptr, %struct.lv_style_t, i8, %struct.lv_point_t, i32 }
%struct.lv_point_t = type { i32, i32 }

; Function Attrs: nounwind uwtable
define internal void @lv_spangroup_destructor(ptr noundef %0, ptr noundef %1) #0 {
  %3 = alloca ptr, align 8
  %4 = alloca ptr, align 8
  %5 = alloca ptr, align 8
  %6 = alloca ptr, align 8
  store ptr %0, ptr %3, align 8, !tbaa !3
  store ptr %1, ptr %4, align 8, !tbaa !3
  call void @llvm.lifetime.start.p0(i64 8, ptr %5) #6
  %7 = load ptr, ptr %4, align 8, !tbaa !3
  store ptr %7, ptr %5, align 8, !tbaa !3
  call void @llvm.lifetime.start.p0(i64 8, ptr %6) #6
  %8 = load ptr, ptr %5, align 8, !tbaa !3
  %9 = getelementptr inbounds nuw %struct._lv_spangroup_t, ptr %8, i32 0, i32 5
  %10 = call ptr @lv_ll_get_head(ptr noundef %9)
  store ptr %10, ptr %6, align 8, !tbaa !3
  br label %11

11:                                               ; preds = %35, %2
  %12 = load ptr, ptr %6, align 8, !tbaa !3
  %13 = icmp ne ptr %12, null
  br i1 %13, label %14, label %42

14:                                               ; preds = %11
  %15 = load ptr, ptr %5, align 8, !tbaa !3
  %16 = getelementptr inbounds nuw %struct._lv_spangroup_t, ptr %15, i32 0, i32 5
  %17 = load ptr, ptr %6, align 8, !tbaa !3
  call void @lv_ll_remove(ptr noundef %16, ptr noundef %17)
  %18 = load ptr, ptr %6, align 8, !tbaa !3
  %19 = getelementptr inbounds nuw %struct._lv_span_t, ptr %18, i32 0, i32 0
  %20 = load ptr, ptr %19, align 8, !tbaa !17
  %21 = icmp ne ptr %20, null
  br i1 %21, label %22, label %35

22:                                               ; preds = %14
  %23 = load ptr, ptr %6, align 8, !tbaa !3
  %24 = getelementptr inbounds nuw %struct._lv_span_t, ptr %23, i32 0, i32 3
  %25 = load i8, ptr %24, align 8
  %26 = and i8 %25, 1
  %27 = zext i8 %26 to i32
  %28 = icmp eq i32 %27, 0
  br i1 %28, label %29, label %35

29:                                               ; preds = %22
  %30 = load ptr, ptr %6, align 8, !tbaa !3
  %31 = getelementptr inbounds nuw %struct._lv_span_t, ptr %30, i32 0, i32 0
  %32 = load ptr, ptr %31, align 8, !tbaa !17
  call void @lv_free(ptr noundef %32)
  %33 = load ptr, ptr %6, align 8, !tbaa !3
  %34 = getelementptr inbounds nuw %struct._lv_span_t, ptr %33, i32 0, i32 0
  store ptr null, ptr %34, align 8, !tbaa !17
  br label %35

35:                                               ; preds = %29, %22, %14
  %36 = load ptr, ptr %6, align 8, !tbaa !3
  %37 = getelementptr inbounds nuw %struct._lv_span_t, ptr %36, i32 0, i32 2
  call void @lv_style_reset(ptr noundef %37)
  %38 = load ptr, ptr %6, align 8, !tbaa !3
  call void @lv_free(ptr noundef %38)
  %39 = load ptr, ptr %5, align 8, !tbaa !3
  %40 = getelementptr inbounds nuw %struct._lv_spangroup_t, ptr %39, i32 0, i32 5
  %41 = call ptr @lv_ll_get_head(ptr noundef %40)
  store ptr %41, ptr %6, align 8, !tbaa !3
  br label %11, !llvm.loop !21

42:                                               ; preds = %11
  call void @llvm.lifetime.end.p0(i64 8, ptr %6) #6
  call void @llvm.lifetime.end.p0(i64 8, ptr %5) #6
  ret void
}