; Function Attrs: nounwind uwtable
define internal void @lv_spangroup_destructor(ptr nocapture readnone %0, ptr noundef %1) #0 {
  %3 = getelementptr inbounds nuw i8, ptr %1, i64 80
  %4 = tail call ptr @lv_ll_get_head(ptr noundef nonnull %3) #8
  %.not14 = icmp eq ptr %4, null
  br i1 %.not14, label %._crit_edge, label %.lr.ph

.lr.ph:                                           ; preds = %2, %12
  %.015 = phi ptr [ %14, %12 ], [ %4, %2 ]
  tail call void @lv_ll_remove(ptr noundef nonnull %3, ptr noundef nonnull %.015) #8
  %5 = load ptr, ptr %.015, align 8, !tbaa !16
  %.not13 = icmp eq ptr %5, null
  br i1 %.not13, label %12, label %6

6:                                                ; preds = %.lr.ph
  %7 = getelementptr inbounds nuw i8, ptr %.015, i64 32
  %8 = load i8, ptr %7, align 8
  %9 = and i8 %8, 1
  %10 = icmp eq i8 %9, 0
  br i1 %10, label %11, label %12

11:                                               ; preds = %6
  tail call void @lv_free(ptr noundef nonnull %5) #8
  store ptr null, ptr %.015, align 8, !tbaa !16
  br label %12

12:                                               ; preds = %11, %6, %.lr.ph
  %13 = getelementptr inbounds nuw i8, ptr %.015, i64 16
  tail call void @lv_style_reset(ptr noundef nonnull %13) #8
  tail call void @lv_free(ptr noundef nonnull %.015) #8
  %14 = tail call ptr @lv_ll_get_head(ptr noundef nonnull %3) #8
  %.not = icmp eq ptr %14, null
  br i1 %.not, label %._crit_edge, label %.lr.ph, !llvm.loop !20

._crit_edge:                                      ; preds = %12, %2
  ret void
}